(lp0
(S'cppflags'
p1
ccopy_reg
_reconstructor
p2
(cino.utils
SpaceList
p3
c__builtin__
list
p4
(lp5
S'-mmcu=atmega328p'
p6
aS'-DF_CPU=16000000L'
p7
aS'-DARDUINO=105'
p8
aS'-I/usr/share/arduino/hardware/arduino/cores/arduino'
p9
aS'-ffunction-sections'
p10
aS'-fdata-sections'
p11
aS'-g'
p12
aS'-Os'
p13
aS'-w'
p14
aS'-I/usr/share/arduino/hardware/arduino/variants/standard'
p15
aS'-I/usr/share/arduino/hardware/arduino/cores/arduino'
p16
aS'-I/usr/share/arduino/hardware/arduino/cores/arduino/avr-libc'
p17
atp18
Rp19
tp20
a(S'cc'
p21
S'/usr/share/arduino/hardware/tools/avr/bin/avr-gcc'
p22
tp23
a(S'version.txt'
p24
S'/usr/share/arduino/lib/version.txt'
p25
tp26
a(S'used_libs'
p27
(lp28
S'/usr/share/arduino/hardware/arduino/cores/arduino'
p29
atp30
a(S'cxx'
p31
S'/usr/share/arduino/hardware/tools/avr/bin/avr-g++'
p32
tp33
a(S'make'
p34
S'/usr/bin/make'
p35
tp36
a(S'build_dir'
p37
S'.build/uno'
p38
tp39
a(S'arduino_core_dir'
p40
g29
tp41
a(S'boards.txt'
p42
(lp43
S'/usr/share/arduino/hardware/arduino/boards.txt'
p44
atp45
a(S'cxxflags'
p46
g2
(g3
g4
(lp47
S'-fno-exceptions'
p48
atp49
Rp50
tp51
a(S'arduino_variants_dir'
p52
S'/usr/share/arduino/hardware/arduino/variants'
p53
tp54
a(S'deps'
p55
g2
(g3
g4
(lp56
S'.build/uno/src/dependencies.d'
p57
aS'.build/uno/arduino/dependencies.d'
p58
atp59
Rp60
tp61
a(S'ar'
p62
S'/usr/share/arduino/hardware/tools/avr/bin/avr-ar'
p63
tp64
a(S'names'
p65
(dp66
S'cpp'
p67
S'%s.cpp'
p68
sS'obj'
p69
S'%s.o'
p70
sS'deps'
p71
S'%s.d'
p72
sS'lib'
p73
S'lib%s.a'
p74
stp75
a(S'cflags'
p76
g2
(g3
g4
(lp77
tp78
Rp79
tp80
a(S'arduino_libraries_dir'
p81
S'/usr/share/arduino/libraries'
p82
tp83
a(S'arduino_lib_version'
p84
g2
(cino.environment
Version
p85
c__builtin__
tuple
p86
(I1
I0
I5
tp87
tp88
Rp89
tp90
a(S'objcopy'
p91
S'/usr/share/arduino/hardware/tools/avr/bin/avr-objcopy'
p92
tp93
a(S'board_models'
p94
cino.environment
BoardModels
p95
((lp96
(lp97
S'uno'
p98
a(dp99
S'_coredir'
p100
S'/usr/share/arduino/hardware/arduino'
p101
sS'bootloader'
p102
(dp103
S'extended_fuses'
p104
S'0x05'
p105
sS'high_fuses'
p106
S'0xde'
p107
sS'low_fuses'
p108
S'0xff'
p109
sS'lock_bits'
p110
S'0x0F'
p111
sS'file'
p112
S'optiboot_atmega328.hex'
p113
sS'path'
p114
S'optiboot'
p115
sS'unlock_bits'
p116
S'0x3F'
p117
ssS'build'
p118
(dp119
S'core'
p120
S'arduino'
p121
sS'mcu'
p122
S'atmega328p'
p123
sS'f_cpu'
p124
S'16000000L'
p125
sS'variant'
p126
S'standard'
p127
ssS'name'
p128
S'Arduino Uno'
p129
sS'upload'
p130
(dp131
S'protocol'
p132
S'arduino'
p133
sS'maximum_size'
p134
S'32256'
p135
sS'speed'
p136
S'115200'
p137
ssaa(lp138
S'atmega328'
p139
a(dp140
g100
S'/usr/share/arduino/hardware/arduino'
p141
sS'bootloader'
p142
(dp143
S'extended_fuses'
p144
S'0x05'
p145
sS'high_fuses'
p146
S'0xDA'
p147
sS'low_fuses'
p148
S'0xFF'
p149
sS'lock_bits'
p150
S'0x0F'
p151
sS'file'
p152
S'ATmegaBOOT_168_atmega328.hex'
p153
sS'path'
p154
S'atmega'
p155
sS'unlock_bits'
p156
S'0x3F'
p157
ssS'build'
p158
(dp159
S'core'
p160
S'arduino'
p161
sS'mcu'
p162
S'atmega328p'
p163
sS'f_cpu'
p164
S'16000000L'
p165
sS'variant'
p166
S'standard'
p167
ssS'name'
p168
S'Arduino Duemilanove w/ ATmega328'
p169
sS'upload'
p170
(dp171
S'protocol'
p172
S'arduino'
p173
sS'maximum_size'
p174
S'30720'
p175
sS'speed'
p176
S'57600'
p177
ssaa(lp178
S'diecimila'
p179
a(dp180
g100
S'/usr/share/arduino/hardware/arduino'
p181
sS'bootloader'
p182
(dp183
S'extended_fuses'
p184
S'0x00'
p185
sS'high_fuses'
p186
S'0xdd'
p187
sS'low_fuses'
p188
S'0xff'
p189
sS'lock_bits'
p190
S'0x0F'
p191
sS'file'
p192
S'ATmegaBOOT_168_diecimila.hex'
p193
sS'path'
p194
S'atmega'
p195
sS'unlock_bits'
p196
S'0x3F'
p197
ssS'build'
p198
(dp199
S'core'
p200
S'arduino'
p201
sS'mcu'
p202
S'atmega168'
p203
sS'f_cpu'
p204
S'16000000L'
p205
sS'variant'
p206
S'standard'
p207
ssS'name'
p208
S'Arduino Diecimila or Duemilanove w/ ATmega168'
p209
sS'upload'
p210
(dp211
S'protocol'
p212
S'arduino'
p213
sS'maximum_size'
p214
S'14336'
p215
sS'speed'
p216
S'19200'
p217
ssaa(lp218
S'nano328'
p219
a(dp220
g100
S'/usr/share/arduino/hardware/arduino'
p221
sS'bootloader'
p222
(dp223
S'extended_fuses'
p224
S'0x05'
p225
sS'high_fuses'
p226
S'0xDA'
p227
sS'low_fuses'
p228
S'0xFF'
p229
sS'lock_bits'
p230
S'0x0F'
p231
sS'file'
p232
S'ATmegaBOOT_168_atmega328.hex'
p233
sS'path'
p234
S'atmega'
p235
sS'unlock_bits'
p236
S'0x3F'
p237
ssS'build'
p238
(dp239
S'core'
p240
S'arduino'
p241
sS'mcu'
p242
S'atmega328p'
p243
sS'f_cpu'
p244
S'16000000L'
p245
sS'variant'
p246
S'eightanaloginputs'
p247
ssS'name'
p248
S'Arduino Nano w/ ATmega328'
p249
sS'upload'
p250
(dp251
S'protocol'
p252
S'arduino'
p253
sS'maximum_size'
p254
S'30720'
p255
sS'speed'
p256
S'57600'
p257
ssaa(lp258
S'nano'
p259
a(dp260
g100
S'/usr/share/arduino/hardware/arduino'
p261
sS'bootloader'
p262
(dp263
S'extended_fuses'
p264
S'0x00'
p265
sS'high_fuses'
p266
S'0xdd'
p267
sS'low_fuses'
p268
S'0xff'
p269
sS'lock_bits'
p270
S'0x0F'
p271
sS'file'
p272
S'ATmegaBOOT_168_diecimila.hex'
p273
sS'path'
p274
S'atmega'
p275
sS'unlock_bits'
p276
S'0x3F'
p277
ssS'build'
p278
(dp279
S'core'
p280
S'arduino'
p281
sS'mcu'
p282
S'atmega168'
p283
sS'f_cpu'
p284
S'16000000L'
p285
sS'variant'
p286
S'eightanaloginputs'
p287
ssS'name'
p288
S'Arduino Nano w/ ATmega168'
p289
sS'upload'
p290
(dp291
S'protocol'
p292
S'arduino'
p293
sS'maximum_size'
p294
S'14336'
p295
sS'speed'
p296
S'19200'
p297
ssaa(lp298
S'mega2560'
p299
a(dp300
g100
S'/usr/share/arduino/hardware/arduino'
p301
sS'bootloader'
p302
(dp303
S'extended_fuses'
p304
S'0xFD'
p305
sS'high_fuses'
p306
S'0xD8'
p307
sS'low_fuses'
p308
S'0xFF'
p309
sS'lock_bits'
p310
S'0x0F'
p311
sS'file'
p312
S'stk500boot_v2_mega2560.hex'
p313
sS'path'
p314
S'stk500v2'
p315
sS'unlock_bits'
p316
S'0x3F'
p317
ssS'build'
p318
(dp319
S'core'
p320
S'arduino'
p321
sS'mcu'
p322
S'atmega2560'
p323
sS'f_cpu'
p324
S'16000000L'
p325
sS'variant'
p326
S'mega'
p327
ssS'name'
p328
S'Arduino Mega 2560 or Mega ADK'
p329
sS'upload'
p330
(dp331
S'protocol'
p332
S'wiring'
p333
sS'maximum_size'
p334
S'258048'
p335
sS'speed'
p336
S'115200'
p337
ssaa(lp338
S'mega'
p339
a(dp340
g100
S'/usr/share/arduino/hardware/arduino'
p341
sS'bootloader'
p342
(dp343
S'extended_fuses'
p344
S'0xF5'
p345
sS'high_fuses'
p346
S'0xDA'
p347
sS'low_fuses'
p348
S'0xFF'
p349
sS'lock_bits'
p350
S'0x0F'
p351
sS'file'
p352
S'ATmegaBOOT_168_atmega1280.hex'
p353
sS'path'
p354
S'atmega'
p355
sS'unlock_bits'
p356
S'0x3F'
p357
ssS'build'
p358
(dp359
S'core'
p360
S'arduino'
p361
sS'mcu'
p362
S'atmega1280'
p363
sS'f_cpu'
p364
S'16000000L'
p365
sS'variant'
p366
S'mega'
p367
ssS'name'
p368
S'Arduino Mega (ATmega1280)'
p369
sS'upload'
p370
(dp371
S'protocol'
p372
S'arduino'
p373
sS'maximum_size'
p374
S'126976'
p375
sS'speed'
p376
S'57600'
p377
ssaa(lp378
S'leonardo'
p379
a(dp380
g100
S'/usr/share/arduino/hardware/arduino'
p381
sS'bootloader'
p382
(dp383
S'extended_fuses'
p384
S'0xcb'
p385
sS'high_fuses'
p386
S'0xd8'
p387
sS'low_fuses'
p388
S'0xff'
p389
sS'lock_bits'
p390
S'0x2F'
p391
sS'file'
p392
S'Caterina-Leonardo.hex'
p393
sS'path'
p394
S'caterina'
p395
sS'unlock_bits'
p396
S'0x3F'
p397
ssS'build'
p398
(dp399
S'core'
p400
S'arduino'
p401
sS'f_cpu'
p402
S'16000000L'
p403
sS'vid'
p404
S'0x2341'
p405
sS'pid'
p406
S'0x8036'
p407
sS'variant'
p408
S'leonardo'
p409
sS'mcu'
p410
S'atmega32u4'
p411
ssS'name'
p412
S'Arduino Leonardo'
p413
sS'upload'
p414
(dp415
S'protocol'
p416
S'avr109'
p417
sS'maximum_size'
p418
S'28672'
p419
sS'speed'
p420
S'57600'
p421
sS'disable_flushing'
p422
S'true'
p423
ssaa(lp424
S'esplora'
p425
a(dp426
g100
S'/usr/share/arduino/hardware/arduino'
p427
sS'bootloader'
p428
(dp429
S'extended_fuses'
p430
S'0xcb'
p431
sS'high_fuses'
p432
S'0xd8'
p433
sS'low_fuses'
p434
S'0xff'
p435
sS'lock_bits'
p436
S'0x2F'
p437
sS'file'
p438
S'Caterina-Esplora.hex'
p439
sS'path'
p440
S'caterina'
p441
sS'unlock_bits'
p442
S'0x3F'
p443
ssS'build'
p444
(dp445
S'core'
p446
S'arduino'
p447
sS'f_cpu'
p448
S'16000000L'
p449
sS'vid'
p450
S'0x2341'
p451
sS'pid'
p452
S'0x803C'
p453
sS'variant'
p454
S'leonardo'
p455
sS'mcu'
p456
S'atmega32u4'
p457
ssS'name'
p458
S'Arduino Esplora'
p459
sS'upload'
p460
(dp461
S'protocol'
p462
S'avr109'
p463
sS'maximum_size'
p464
S'28672'
p465
sS'speed'
p466
S'57600'
p467
sS'disable_flushing'
p468
S'true'
p469
ssaa(lp470
S'micro'
p471
a(dp472
g100
S'/usr/share/arduino/hardware/arduino'
p473
sS'bootloader'
p474
(dp475
S'extended_fuses'
p476
S'0xcb'
p477
sS'high_fuses'
p478
S'0xd8'
p479
sS'low_fuses'
p480
S'0xff'
p481
sS'lock_bits'
p482
S'0x2F'
p483
sS'file'
p484
S'Caterina-Micro.hex'
p485
sS'path'
p486
S'caterina'
p487
sS'unlock_bits'
p488
S'0x3F'
p489
ssS'build'
p490
(dp491
S'core'
p492
S'arduino'
p493
sS'f_cpu'
p494
S'16000000L'
p495
sS'vid'
p496
S'0x2341'
p497
sS'pid'
p498
S'0x8037'
p499
sS'variant'
p500
S'micro'
p501
sS'mcu'
p502
S'atmega32u4'
p503
ssS'name'
p504
S'Arduino Micro'
p505
sS'upload'
p506
(dp507
S'protocol'
p508
S'avr109'
p509
sS'maximum_size'
p510
S'28672'
p511
sS'speed'
p512
S'57600'
p513
sS'disable_flushing'
p514
S'true'
p515
ssaa(lp516
S'mini328'
p517
a(dp518
g100
S'/usr/share/arduino/hardware/arduino'
p519
sS'bootloader'
p520
(dp521
S'extended_fuses'
p522
S'0x05'
p523
sS'high_fuses'
p524
S'0xd8'
p525
sS'low_fuses'
p526
S'0xff'
p527
sS'lock_bits'
p528
S'0x0F'
p529
sS'file'
p530
S'optiboot_atmega328-Mini.hex'
p531
sS'path'
p532
S'optiboot'
p533
sS'unlock_bits'
p534
S'0x3F'
p535
ssS'build'
p536
(dp537
S'core'
p538
S'arduino'
p539
sS'mcu'
p540
S'atmega328p'
p541
sS'f_cpu'
p542
S'16000000L'
p543
sS'variant'
p544
S'eightanaloginputs'
p545
ssS'name'
p546
S'Arduino Mini w/ ATmega328'
p547
sS'upload'
p548
(dp549
S'protocol'
p550
S'arduino'
p551
sS'maximum_size'
p552
S'28672'
p553
sS'speed'
p554
S'115200'
p555
ssaa(lp556
S'mini'
p557
a(dp558
g100
S'/usr/share/arduino/hardware/arduino'
p559
sS'bootloader'
p560
(dp561
S'extended_fuses'
p562
S'0x00'
p563
sS'high_fuses'
p564
S'0xdd'
p565
sS'low_fuses'
p566
S'0xff'
p567
sS'lock_bits'
p568
S'0x0F'
p569
sS'file'
p570
S'ATmegaBOOT_168_ng.hex'
p571
sS'path'
p572
S'atmega'
p573
sS'unlock_bits'
p574
S'0x3F'
p575
ssS'build'
p576
(dp577
S'core'
p578
S'arduino'
p579
sS'mcu'
p580
S'atmega168'
p581
sS'f_cpu'
p582
S'16000000L'
p583
sS'variant'
p584
S'eightanaloginputs'
p585
ssS'name'
p586
S'Arduino Mini w/ ATmega168'
p587
sS'upload'
p588
(dp589
S'protocol'
p590
S'arduino'
p591
sS'maximum_size'
p592
S'14336'
p593
sS'speed'
p594
S'19200'
p595
ssaa(lp596
S'ethernet'
p597
a(dp598
g100
S'/usr/share/arduino/hardware/arduino'
p599
sS'bootloader'
p600
(dp601
S'extended_fuses'
p602
S'0x05'
p603
sS'high_fuses'
p604
S'0xde'
p605
sS'low_fuses'
p606
S'0xff'
p607
sS'lock_bits'
p608
S'0x0F'
p609
sS'file'
p610
S'optiboot_atmega328.hex'
p611
sS'path'
p612
S'optiboot'
p613
sS'unlock_bits'
p614
S'0x3F'
p615
ssS'build'
p616
(dp617
S'variant'
p618
S'standard'
p619
sS'mcu'
p620
S'atmega328p'
p621
sS'f_cpu'
p622
S'16000000L'
p623
sS'core'
p624
S'arduino'
p625
ssS'name'
p626
S'Arduino Ethernet'
p627
sS'upload'
p628
(dp629
S'protocol'
p630
S'arduino'
p631
sS'maximum_size'
p632
S'32256'
p633
sS'speed'
p634
S'115200'
p635
ssaa(lp636
S'fio'
p637
a(dp638
g100
S'/usr/share/arduino/hardware/arduino'
p639
sS'bootloader'
p640
(dp641
S'extended_fuses'
p642
S'0x05'
p643
sS'high_fuses'
p644
S'0xDA'
p645
sS'low_fuses'
p646
S'0xFF'
p647
sS'lock_bits'
p648
S'0x0F'
p649
sS'file'
p650
S'ATmegaBOOT_168_atmega328_pro_8MHz.hex'
p651
sS'path'
p652
S'arduino:atmega'
p653
sS'unlock_bits'
p654
S'0x3F'
p655
ssS'build'
p656
(dp657
S'core'
p658
S'arduino'
p659
sS'mcu'
p660
S'atmega328p'
p661
sS'f_cpu'
p662
S'8000000L'
p663
sS'variant'
p664
S'eightanaloginputs'
p665
ssS'name'
p666
S'Arduino Fio'
p667
sS'upload'
p668
(dp669
S'protocol'
p670
S'arduino'
p671
sS'maximum_size'
p672
S'30720'
p673
sS'speed'
p674
S'57600'
p675
ssaa(lp676
S'bt328'
p677
a(dp678
g100
S'/usr/share/arduino/hardware/arduino'
p679
sS'bootloader'
p680
(dp681
S'extended_fuses'
p682
S'0x05'
p683
sS'high_fuses'
p684
S'0xd8'
p685
sS'low_fuses'
p686
S'0xff'
p687
sS'lock_bits'
p688
S'0x0F'
p689
sS'file'
p690
S'ATmegaBOOT_168_atmega328_bt.hex'
p691
sS'path'
p692
S'bt'
p693
sS'unlock_bits'
p694
S'0x3F'
p695
ssS'build'
p696
(dp697
S'core'
p698
S'arduino'
p699
sS'mcu'
p700
S'atmega328p'
p701
sS'f_cpu'
p702
S'16000000L'
p703
sS'variant'
p704
S'eightanaloginputs'
p705
ssS'name'
p706
S'Arduino BT w/ ATmega328'
p707
sS'upload'
p708
(dp709
S'protocol'
p710
S'arduino'
p711
sS'maximum_size'
p712
S'28672'
p713
sS'speed'
p714
S'19200'
p715
sS'disable_flushing'
p716
S'true'
p717
ssaa(lp718
S'bt'
p719
a(dp720
g100
S'/usr/share/arduino/hardware/arduino'
p721
sS'bootloader'
p722
(dp723
S'extended_fuses'
p724
S'0x00'
p725
sS'high_fuses'
p726
S'0xdd'
p727
sS'low_fuses'
p728
S'0xff'
p729
sS'lock_bits'
p730
S'0x0F'
p731
sS'file'
p732
S'ATmegaBOOT_168.hex'
p733
sS'path'
p734
S'bt'
p735
sS'unlock_bits'
p736
S'0x3F'
p737
ssS'build'
p738
(dp739
S'core'
p740
S'arduino'
p741
sS'mcu'
p742
S'atmega168'
p743
sS'f_cpu'
p744
S'16000000L'
p745
sS'variant'
p746
S'eightanaloginputs'
p747
ssS'name'
p748
S'Arduino BT w/ ATmega168'
p749
sS'upload'
p750
(dp751
S'protocol'
p752
S'arduino'
p753
sS'maximum_size'
p754
S'14336'
p755
sS'speed'
p756
S'19200'
p757
sS'disable_flushing'
p758
S'true'
p759
ssaa(lp760
S'LilyPadUSB'
p761
a(dp762
g100
S'/usr/share/arduino/hardware/arduino'
p763
sS'bootloader'
p764
(dp765
S'extended_fuses'
p766
S'0xce'
p767
sS'high_fuses'
p768
S'0xd8'
p769
sS'low_fuses'
p770
S'0xff'
p771
sS'lock_bits'
p772
S'0x2F'
p773
sS'file'
p774
S'Caterina-LilyPadUSB.hex'
p775
sS'path'
p776
S'caterina-LilyPadUSB'
p777
sS'unlock_bits'
p778
S'0x3F'
p779
ssS'build'
p780
(dp781
S'core'
p782
S'arduino'
p783
sS'f_cpu'
p784
S'8000000L'
p785
sS'vid'
p786
S'0x1B4F'
p787
sS'pid'
p788
S'0x9208'
p789
sS'variant'
p790
S'leonardo'
p791
sS'mcu'
p792
S'atmega32u4'
p793
ssS'name'
p794
S'LilyPad Arduino USB'
p795
sS'upload'
p796
(dp797
S'protocol'
p798
S'avr109'
p799
sS'maximum_size'
p800
S'28672'
p801
sS'speed'
p802
S'57600'
p803
sS'disable_flushing'
p804
S'true'
p805
ssaa(lp806
S'lilypad328'
p807
a(dp808
g100
S'/usr/share/arduino/hardware/arduino'
p809
sS'bootloader'
p810
(dp811
S'extended_fuses'
p812
S'0x05'
p813
sS'high_fuses'
p814
S'0xDA'
p815
sS'low_fuses'
p816
S'0xFF'
p817
sS'lock_bits'
p818
S'0x0F'
p819
sS'file'
p820
S'ATmegaBOOT_168_atmega328_pro_8MHz.hex'
p821
sS'path'
p822
S'atmega'
p823
sS'unlock_bits'
p824
S'0x3F'
p825
ssS'build'
p826
(dp827
S'core'
p828
S'arduino'
p829
sS'mcu'
p830
S'atmega328p'
p831
sS'f_cpu'
p832
S'8000000L'
p833
sS'variant'
p834
S'standard'
p835
ssS'name'
p836
S'LilyPad Arduino w/ ATmega328'
p837
sS'upload'
p838
(dp839
S'protocol'
p840
S'arduino'
p841
sS'maximum_size'
p842
S'30720'
p843
sS'speed'
p844
S'57600'
p845
ssaa(lp846
S'lilypad'
p847
a(dp848
g100
S'/usr/share/arduino/hardware/arduino'
p849
sS'bootloader'
p850
(dp851
S'extended_fuses'
p852
S'0x00'
p853
sS'high_fuses'
p854
S'0xdd'
p855
sS'low_fuses'
p856
S'0xe2'
p857
sS'lock_bits'
p858
S'0x0F'
p859
sS'file'
p860
S'LilyPadBOOT_168.hex'
p861
sS'path'
p862
S'lilypad'
p863
sS'unlock_bits'
p864
S'0x3F'
p865
ssS'build'
p866
(dp867
S'core'
p868
S'arduino'
p869
sS'mcu'
p870
S'atmega168'
p871
sS'f_cpu'
p872
S'8000000L'
p873
sS'variant'
p874
S'standard'
p875
ssS'name'
p876
S'LilyPad Arduino w/ ATmega168'
p877
sS'upload'
p878
(dp879
S'protocol'
p880
S'arduino'
p881
sS'maximum_size'
p882
S'14336'
p883
sS'speed'
p884
S'19200'
p885
ssaa(lp886
S'pro5v328'
p887
a(dp888
g100
S'/usr/share/arduino/hardware/arduino'
p889
sS'bootloader'
p890
(dp891
S'extended_fuses'
p892
S'0x05'
p893
sS'high_fuses'
p894
S'0xDA'
p895
sS'low_fuses'
p896
S'0xFF'
p897
sS'lock_bits'
p898
S'0x0F'
p899
sS'file'
p900
S'ATmegaBOOT_168_atmega328.hex'
p901
sS'path'
p902
S'atmega'
p903
sS'unlock_bits'
p904
S'0x3F'
p905
ssS'build'
p906
(dp907
S'core'
p908
S'arduino'
p909
sS'mcu'
p910
S'atmega328p'
p911
sS'f_cpu'
p912
S'16000000L'
p913
sS'variant'
p914
S'standard'
p915
ssS'name'
p916
S'Arduino Pro or Pro Mini (5V, 16 MHz) w/ ATmega328'
p917
sS'upload'
p918
(dp919
S'protocol'
p920
S'arduino'
p921
sS'maximum_size'
p922
S'30720'
p923
sS'speed'
p924
S'57600'
p925
ssaa(lp926
S'pro5v'
p927
a(dp928
g100
S'/usr/share/arduino/hardware/arduino'
p929
sS'bootloader'
p930
(dp931
S'extended_fuses'
p932
S'0x00'
p933
sS'high_fuses'
p934
S'0xdd'
p935
sS'low_fuses'
p936
S'0xff'
p937
sS'lock_bits'
p938
S'0x0F'
p939
sS'file'
p940
S'ATmegaBOOT_168_diecimila.hex'
p941
sS'path'
p942
S'atmega'
p943
sS'unlock_bits'
p944
S'0x3F'
p945
ssS'build'
p946
(dp947
S'core'
p948
S'arduino'
p949
sS'mcu'
p950
S'atmega168'
p951
sS'f_cpu'
p952
S'16000000L'
p953
sS'variant'
p954
S'standard'
p955
ssS'name'
p956
S'Arduino Pro or Pro Mini (5V, 16 MHz) w/ ATmega168'
p957
sS'upload'
p958
(dp959
S'protocol'
p960
S'arduino'
p961
sS'maximum_size'
p962
S'14336'
p963
sS'speed'
p964
S'19200'
p965
ssaa(lp966
S'pro328'
p967
a(dp968
g100
S'/usr/share/arduino/hardware/arduino'
p969
sS'bootloader'
p970
(dp971
S'extended_fuses'
p972
S'0x05'
p973
sS'high_fuses'
p974
S'0xDA'
p975
sS'low_fuses'
p976
S'0xFF'
p977
sS'lock_bits'
p978
S'0x0F'
p979
sS'file'
p980
S'ATmegaBOOT_168_atmega328_pro_8MHz.hex'
p981
sS'path'
p982
S'atmega'
p983
sS'unlock_bits'
p984
S'0x3F'
p985
ssS'build'
p986
(dp987
S'core'
p988
S'arduino'
p989
sS'mcu'
p990
S'atmega328p'
p991
sS'f_cpu'
p992
S'8000000L'
p993
sS'variant'
p994
S'standard'
p995
ssS'name'
p996
S'Arduino Pro or Pro Mini (3.3V, 8 MHz) w/ ATmega328'
p997
sS'upload'
p998
(dp999
S'protocol'
p1000
S'arduino'
p1001
sS'maximum_size'
p1002
S'30720'
p1003
sS'speed'
p1004
S'57600'
p1005
ssaa(lp1006
S'pro'
p1007
a(dp1008
g100
S'/usr/share/arduino/hardware/arduino'
p1009
sS'bootloader'
p1010
(dp1011
S'extended_fuses'
p1012
S'0x00'
p1013
sS'high_fuses'
p1014
S'0xdd'
p1015
sS'low_fuses'
p1016
S'0xc6'
p1017
sS'lock_bits'
p1018
S'0x0F'
p1019
sS'file'
p1020
S'ATmegaBOOT_168_pro_8MHz.hex'
p1021
sS'path'
p1022
S'atmega'
p1023
sS'unlock_bits'
p1024
S'0x3F'
p1025
ssS'build'
p1026
(dp1027
S'core'
p1028
S'arduino'
p1029
sS'mcu'
p1030
S'atmega168'
p1031
sS'f_cpu'
p1032
S'8000000L'
p1033
sS'variant'
p1034
S'standard'
p1035
ssS'name'
p1036
S'Arduino Pro or Pro Mini (3.3V, 8 MHz) w/ ATmega168'
p1037
sS'upload'
p1038
(dp1039
S'protocol'
p1040
S'arduino'
p1041
sS'maximum_size'
p1042
S'14336'
p1043
sS'speed'
p1044
S'19200'
p1045
ssaa(lp1046
S'atmega168'
p1047
a(dp1048
g100
S'/usr/share/arduino/hardware/arduino'
p1049
sS'bootloader'
p1050
(dp1051
S'extended_fuses'
p1052
S'0x00'
p1053
sS'high_fuses'
p1054
S'0xdd'
p1055
sS'low_fuses'
p1056
S'0xff'
p1057
sS'lock_bits'
p1058
S'0x0F'
p1059
sS'file'
p1060
S'ATmegaBOOT_168_ng.hex'
p1061
sS'path'
p1062
S'atmega'
p1063
sS'unlock_bits'
p1064
S'0x3F'
p1065
ssS'build'
p1066
(dp1067
S'core'
p1068
S'arduino'
p1069
sS'mcu'
p1070
S'atmega168'
p1071
sS'f_cpu'
p1072
S'16000000L'
p1073
sS'variant'
p1074
S'standard'
p1075
ssS'name'
p1076
S'Arduino NG or older w/ ATmega168'
p1077
sS'upload'
p1078
(dp1079
S'protocol'
p1080
S'arduino'
p1081
sS'maximum_size'
p1082
S'14336'
p1083
sS'speed'
p1084
S'19200'
p1085
ssaa(lp1086
S'atmega8'
p1087
a(dp1088
g100
S'/usr/share/arduino/hardware/arduino'
p1089
sS'bootloader'
p1090
(dp1091
S'high_fuses'
p1092
S'0xca'
p1093
sS'low_fuses'
p1094
S'0xdf'
p1095
sS'lock_bits'
p1096
S'0x0F'
p1097
sS'file'
p1098
S'ATmegaBOOT-prod-firmware-2009-11-07.hex'
p1099
sS'path'
p1100
S'atmega8'
p1101
sS'unlock_bits'
p1102
S'0x3F'
p1103
ssS'build'
p1104
(dp1105
S'core'
p1106
S'arduino'
p1107
sS'mcu'
p1108
S'atmega8'
p1109
sS'f_cpu'
p1110
S'16000000L'
p1111
sS'variant'
p1112
S'standard'
p1113
ssS'name'
p1114
S'Arduino NG or older w/ ATmega8'
p1115
sS'upload'
p1116
(dp1117
S'protocol'
p1118
S'arduino'
p1119
sS'maximum_size'
p1120
S'7168'
p1121
sS'speed'
p1122
S'19200'
p1123
ssaa(lp1124
S'robotControl'
p1125
a(dp1126
g100
S'/usr/share/arduino/hardware/arduino'
p1127
sS'bootloader'
p1128
(dp1129
S'extended_fuses'
p1130
S'0xcb'
p1131
sS'high_fuses'
p1132
S'0xd8'
p1133
sS'low_fuses'
p1134
S'0xff'
p1135
sS'lock_bits'
p1136
S'0x2F'
p1137
sS'file'
p1138
S'Caterina-Robot-Control.hex'
p1139
sS'path'
p1140
S'caterina-Arduino_Robot'
p1141
sS'unlock_bits'
p1142
S'0x3F'
p1143
ssS'build'
p1144
(dp1145
S'core'
p1146
S'robot'
p1147
sS'f_cpu'
p1148
S'16000000L'
p1149
sS'vid'
p1150
S'0x2341'
p1151
sS'pid'
p1152
S'0x8038'
p1153
sS'variant'
p1154
S'robot_control'
p1155
sS'mcu'
p1156
S'atmega32u4'
p1157
ssS'name'
p1158
S'Arduino Robot Control'
p1159
sS'upload'
p1160
(dp1161
S'protocol'
p1162
S'avr109'
p1163
sS'maximum_size'
p1164
S'28672'
p1165
sS'speed'
p1166
S'57600'
p1167
sS'disable_flushing'
p1168
S'true'
p1169
ssaa(lp1170
S'robotMotor'
p1171
a(dp1172
g100
S'/usr/share/arduino/hardware/arduino'
p1173
sS'bootloader'
p1174
(dp1175
S'extended_fuses'
p1176
S'0xcb'
p1177
sS'high_fuses'
p1178
S'0xd8'
p1179
sS'low_fuses'
p1180
S'0xff'
p1181
sS'lock_bits'
p1182
S'0x2F'
p1183
sS'file'
p1184
S'Caterina-Robot-Motor.hex'
p1185
sS'path'
p1186
S'caterina-Arduino_Robot'
p1187
sS'unlock_bits'
p1188
S'0x3F'
p1189
ssS'build'
p1190
(dp1191
S'core'
p1192
S'robot'
p1193
sS'f_cpu'
p1194
S'16000000L'
p1195
sS'vid'
p1196
S'0x2341'
p1197
sS'pid'
p1198
S'0x8039'
p1199
sS'variant'
p1200
S'robot_motor'
p1201
sS'mcu'
p1202
S'atmega32u4'
p1203
ssS'name'
p1204
S'Arduino Robot Motor'
p1205
sS'upload'
p1206
(dp1207
S'protocol'
p1208
S'avr109'
p1209
sS'maximum_size'
p1210
S'28672'
p1211
sS'speed'
p1212
S'57600'
p1213
sS'disable_flushing'
p1214
S'true'
p1215
ssaatp1216
Rp1217
(dp1218
S'default'
p1219
S'uno'
p1220
sbtp1221
a(S'ldflags'
p1222
g2
(g3
g4
(lp1223
g6
aS'-Wl,-Os'
p1224
aS'-Wl,--gc-sections'
p1225
atp1226
Rp1227
tp1228
a.